(lp0
S'root://cms-xrd-global.cern.ch//store/mc/RunIIAutumn18MiniAOD/TTJets_TuneCP5_13TeV-madgraphMLM-pythia8/MINIAODSIM/102X_upgrade2018_realistic_v15-v1/280000/A3F7FD12-0294-DB47-874F-06B71EBC4E18.root'
p1
aS'root://cms-xrd-global.cern.ch//store/mc/RunIIAutumn18MiniAOD/TTJets_TuneCP5_13TeV-madgraphMLM-pythia8/MINIAODSIM/102X_upgrade2018_realistic_v15-v1/280000/9146D606-CBDD-3C4E-B336-0AFC72F1AFE9.root'
p2
aS'root://cms-xrd-global.cern.ch//store/mc/RunIIAutumn18MiniAOD/TTJets_TuneCP5_13TeV-madgraphMLM-pythia8/MINIAODSIM/102X_upgrade2018_realistic_v15-v1/280000/38129B6D-12F0-1F45-B065-EF50FF83FE0D.root'
p3
aS'root://cms-xrd-global.cern.ch//store/mc/RunIIAutumn18MiniAOD/TTJets_TuneCP5_13TeV-madgraphMLM-pythia8/MINIAODSIM/102X_upgrade2018_realistic_v15-v1/280000/5565AE27-8BDD-FE4B-8160-CAA00043AB2B.root'
p4
aS'root://cms-xrd-global.cern.ch//store/mc/RunIIAutumn18MiniAOD/TTJets_TuneCP5_13TeV-madgraphMLM-pythia8/MINIAODSIM/102X_upgrade2018_realistic_v15-v1/280000/34AD455F-F831-4642-A52A-381A69F941F9.root'
p5
aS'root://cms-xrd-global.cern.ch//store/mc/RunIIAutumn18MiniAOD/TTJets_TuneCP5_13TeV-madgraphMLM-pythia8/MINIAODSIM/102X_upgrade2018_realistic_v15-v1/280000/92931294-9C77-FD48-9C5E-2D5FE0FA0F15.root'
p6
aS'root://cms-xrd-global.cern.ch//store/mc/RunIIAutumn18MiniAOD/TTJets_TuneCP5_13TeV-madgraphMLM-pythia8/MINIAODSIM/102X_upgrade2018_realistic_v15-v1/280000/377D85F9-5D52-0547-BFE7-33027440174D.root'
p7
aS'root://cms-xrd-global.cern.ch//store/mc/RunIIAutumn18MiniAOD/TTJets_TuneCP5_13TeV-madgraphMLM-pythia8/MINIAODSIM/102X_upgrade2018_realistic_v15-v1/280000/74B32554-C896-EC46-9F69-A5A0AFB67F2F.root'
p8
aS'root://cms-xrd-global.cern.ch//store/mc/RunIIAutumn18MiniAOD/TTJets_TuneCP5_13TeV-madgraphMLM-pythia8/MINIAODSIM/102X_upgrade2018_realistic_v15-v1/280000/BF771BAE-32F1-6242-815D-97228B44B22C.root'
p9
aS'root://cms-xrd-global.cern.ch//store/mc/RunIIAutumn18MiniAOD/TTJets_TuneCP5_13TeV-madgraphMLM-pythia8/MINIAODSIM/102X_upgrade2018_realistic_v15-v1/280000/BC6BE68F-956F-F14D-87B9-DD6EF2830051.root'
p10
a.