(lp0
S'root://cms-xrd-global.cern.ch//store/mc/RunIIAutumn18MiniAOD/TTJets_TuneCP5_13TeV-madgraphMLM-pythia8/MINIAODSIM/102X_upgrade2018_realistic_v15-v1/10000/A0CF4995-2343-154D-AF03-7BE4E7FDA951.root'
p1
aS'root://cms-xrd-global.cern.ch//store/mc/RunIIAutumn18MiniAOD/TTJets_TuneCP5_13TeV-madgraphMLM-pythia8/MINIAODSIM/102X_upgrade2018_realistic_v15-v1/10000/A02E47E5-B6DE-CF43-91DB-2AF6013B4658.root'
p2
aS'root://cms-xrd-global.cern.ch//store/mc/RunIIAutumn18MiniAOD/TTJets_TuneCP5_13TeV-madgraphMLM-pythia8/MINIAODSIM/102X_upgrade2018_realistic_v15-v1/10000/F2FA8EFC-156C-7E43-B68E-CC055C321859.root'
p3
aS'root://cms-xrd-global.cern.ch//store/mc/RunIIAutumn18MiniAOD/TTJets_TuneCP5_13TeV-madgraphMLM-pythia8/MINIAODSIM/102X_upgrade2018_realistic_v15-v1/10000/D6D594CE-6A15-5B4E-9750-24EBE12BAB0F.root'
p4
aS'root://cms-xrd-global.cern.ch//store/mc/RunIIAutumn18MiniAOD/TTJets_TuneCP5_13TeV-madgraphMLM-pythia8/MINIAODSIM/102X_upgrade2018_realistic_v15-v1/10000/213B799F-8147-E242-84DF-852BC26D3873.root'
p5
aS'root://cms-xrd-global.cern.ch//store/mc/RunIIAutumn18MiniAOD/TTJets_TuneCP5_13TeV-madgraphMLM-pythia8/MINIAODSIM/102X_upgrade2018_realistic_v15-v1/10000/58884F6E-34B5-724D-A02C-877BED8C0E38.root'
p6
aS'root://cms-xrd-global.cern.ch//store/mc/RunIIAutumn18MiniAOD/TTJets_TuneCP5_13TeV-madgraphMLM-pythia8/MINIAODSIM/102X_upgrade2018_realistic_v15-v1/10000/D3A1DEAA-F8DF-AB42-9093-78FC1B87C3D0.root'
p7
aS'root://cms-xrd-global.cern.ch//store/mc/RunIIAutumn18MiniAOD/TTJets_TuneCP5_13TeV-madgraphMLM-pythia8/MINIAODSIM/102X_upgrade2018_realistic_v15-v1/10000/651879F5-2570-B74F-8E92-AB198B625FE9.root'
p8
aS'root://cms-xrd-global.cern.ch//store/mc/RunIIAutumn18MiniAOD/TTJets_TuneCP5_13TeV-madgraphMLM-pythia8/MINIAODSIM/102X_upgrade2018_realistic_v15-v1/10000/2060403D-256D-734F-8730-463329A16DC7.root'
p9
aS'root://cms-xrd-global.cern.ch//store/mc/RunIIAutumn18MiniAOD/TTJets_TuneCP5_13TeV-madgraphMLM-pythia8/MINIAODSIM/102X_upgrade2018_realistic_v15-v1/10000/85E201A1-E9DF-E74E-A69A-A2118A990FBB.root'
p10
a.