(lp0
S'root://cms-xrd-global.cern.ch//store/mc/RunIIAutumn18MiniAOD/TTJets_TuneCP5_13TeV-madgraphMLM-pythia8/MINIAODSIM/102X_upgrade2018_realistic_v15-v1/10000/3329713D-1917-F948-A924-4A9C32A284A9.root'
p1
aS'root://cms-xrd-global.cern.ch//store/mc/RunIIAutumn18MiniAOD/TTJets_TuneCP5_13TeV-madgraphMLM-pythia8/MINIAODSIM/102X_upgrade2018_realistic_v15-v1/10000/7C790E4E-10BE-F442-8016-57DC60418A18.root'
p2
aS'root://cms-xrd-global.cern.ch//store/mc/RunIIAutumn18MiniAOD/TTJets_TuneCP5_13TeV-madgraphMLM-pythia8/MINIAODSIM/102X_upgrade2018_realistic_v15-v1/10000/8183820F-8723-8246-BC89-F0FA224C5D9B.root'
p3
aS'root://cms-xrd-global.cern.ch//store/mc/RunIIAutumn18MiniAOD/TTJets_TuneCP5_13TeV-madgraphMLM-pythia8/MINIAODSIM/102X_upgrade2018_realistic_v15-v1/10000/E22145DA-3080-F446-8F5D-570E073FC606.root'
p4
aS'root://cms-xrd-global.cern.ch//store/mc/RunIIAutumn18MiniAOD/TTJets_TuneCP5_13TeV-madgraphMLM-pythia8/MINIAODSIM/102X_upgrade2018_realistic_v15-v1/90000/0D1069F3-FB65-1348-ABA4-84EF87BA237E.root'
p5
aS'root://cms-xrd-global.cern.ch//store/mc/RunIIAutumn18MiniAOD/TTJets_TuneCP5_13TeV-madgraphMLM-pythia8/MINIAODSIM/102X_upgrade2018_realistic_v15-v1/90000/E87C1E14-FFB9-6141-80BA-6D285CFDC051.root'
p6
aS'root://cms-xrd-global.cern.ch//store/mc/RunIIAutumn18MiniAOD/TTJets_TuneCP5_13TeV-madgraphMLM-pythia8/MINIAODSIM/102X_upgrade2018_realistic_v15-v1/10000/8131D3EB-D723-144B-B27F-08774B52EB7B.root'
p7
aS'root://cms-xrd-global.cern.ch//store/mc/RunIIAutumn18MiniAOD/TTJets_TuneCP5_13TeV-madgraphMLM-pythia8/MINIAODSIM/102X_upgrade2018_realistic_v15-v1/10000/A196642D-BFC4-F34D-9E75-DAA18BB48D0F.root'
p8
aS'root://cms-xrd-global.cern.ch//store/mc/RunIIAutumn18MiniAOD/TTJets_TuneCP5_13TeV-madgraphMLM-pythia8/MINIAODSIM/102X_upgrade2018_realistic_v15-v1/90000/0434E026-32BA-B543-A97D-42DEEFE25A2E.root'
p9
aS'root://cms-xrd-global.cern.ch//store/mc/RunIIAutumn18MiniAOD/TTJets_TuneCP5_13TeV-madgraphMLM-pythia8/MINIAODSIM/102X_upgrade2018_realistic_v15-v1/90000/BFAE6D89-5B9E-2E4B-B033-EF8E05CD9BFB.root'
p10
a.