(lp0
S'root://cms-xrd-global.cern.ch//store/mc/RunIIAutumn18MiniAOD/TTJets_TuneCP5_13TeV-madgraphMLM-pythia8/MINIAODSIM/102X_upgrade2018_realistic_v15-v1/90000/8E671D3F-8042-DD4F-9E01-B4489F052EF0.root'
p1
aS'root://cms-xrd-global.cern.ch//store/mc/RunIIAutumn18MiniAOD/TTJets_TuneCP5_13TeV-madgraphMLM-pythia8/MINIAODSIM/102X_upgrade2018_realistic_v15-v1/10000/D784C0F9-451D-EF4D-B97E-276CCCFA52DB.root'
p2
aS'root://cms-xrd-global.cern.ch//store/mc/RunIIAutumn18MiniAOD/TTJets_TuneCP5_13TeV-madgraphMLM-pythia8/MINIAODSIM/102X_upgrade2018_realistic_v15-v1/10000/729D2149-ACFE-C34A-80FF-507FC4E5FF05.root'
p3
aS'root://cms-xrd-global.cern.ch//store/mc/RunIIAutumn18MiniAOD/TTJets_TuneCP5_13TeV-madgraphMLM-pythia8/MINIAODSIM/102X_upgrade2018_realistic_v15-v1/10000/41ADD82A-A6DC-424F-8880-1CA77E10E6A3.root'
p4
aS'root://cms-xrd-global.cern.ch//store/mc/RunIIAutumn18MiniAOD/TTJets_TuneCP5_13TeV-madgraphMLM-pythia8/MINIAODSIM/102X_upgrade2018_realistic_v15-v1/10000/435D9581-25AA-2441-82E5-DEBA81880837.root'
p5
aS'root://cms-xrd-global.cern.ch//store/mc/RunIIAutumn18MiniAOD/TTJets_TuneCP5_13TeV-madgraphMLM-pythia8/MINIAODSIM/102X_upgrade2018_realistic_v15-v1/10000/7EE72311-6CAB-DB41-B1BE-AB65FBEA98CC.root'
p6
aS'root://cms-xrd-global.cern.ch//store/mc/RunIIAutumn18MiniAOD/TTJets_TuneCP5_13TeV-madgraphMLM-pythia8/MINIAODSIM/102X_upgrade2018_realistic_v15-v1/90000/D0428921-B91A-0C46-8C12-D9768C576F4D.root'
p7
aS'root://cms-xrd-global.cern.ch//store/mc/RunIIAutumn18MiniAOD/TTJets_TuneCP5_13TeV-madgraphMLM-pythia8/MINIAODSIM/102X_upgrade2018_realistic_v15-v1/90000/3BBF7C3E-BA11-4348-B474-59CF9329F3F7.root'
p8
aS'root://cms-xrd-global.cern.ch//store/mc/RunIIAutumn18MiniAOD/TTJets_TuneCP5_13TeV-madgraphMLM-pythia8/MINIAODSIM/102X_upgrade2018_realistic_v15-v1/90000/AF2054A7-D44F-CC4E-A240-AACDC16D68FD.root'
p9
aS'root://cms-xrd-global.cern.ch//store/mc/RunIIAutumn18MiniAOD/TTJets_TuneCP5_13TeV-madgraphMLM-pythia8/MINIAODSIM/102X_upgrade2018_realistic_v15-v1/280000/823FE8AA-F3B4-B148-8FB3-7B506B4AFD56.root'
p10
a.