(lp0
S'root://cms-xrd-global.cern.ch//store/mc/RunIIAutumn18MiniAOD/TTJets_TuneCP5_13TeV-madgraphMLM-pythia8/MINIAODSIM/102X_upgrade2018_realistic_v15-v1/280000/B9F5A7EE-E336-3243-BE2B-E71DA269F398.root'
p1
aS'root://cms-xrd-global.cern.ch//store/mc/RunIIAutumn18MiniAOD/TTJets_TuneCP5_13TeV-madgraphMLM-pythia8/MINIAODSIM/102X_upgrade2018_realistic_v15-v1/280000/401F038B-D1D8-D441-B2B2-ADBA8A6C0A4E.root'
p2
aS'root://cms-xrd-global.cern.ch//store/mc/RunIIAutumn18MiniAOD/TTJets_TuneCP5_13TeV-madgraphMLM-pythia8/MINIAODSIM/102X_upgrade2018_realistic_v15-v1/280000/6FCA0601-9CD2-1845-B406-598C5DAF011C.root'
p3
aS'root://cms-xrd-global.cern.ch//store/mc/RunIIAutumn18MiniAOD/TTJets_TuneCP5_13TeV-madgraphMLM-pythia8/MINIAODSIM/102X_upgrade2018_realistic_v15-v1/280000/1A954B71-6DCF-9049-991B-9BE6AD416C89.root'
p4
aS'root://cms-xrd-global.cern.ch//store/mc/RunIIAutumn18MiniAOD/TTJets_TuneCP5_13TeV-madgraphMLM-pythia8/MINIAODSIM/102X_upgrade2018_realistic_v15-v1/280000/C0F7332F-6812-1A40-B4D8-D0FDC820B7C4.root'
p5
aS'root://cms-xrd-global.cern.ch//store/mc/RunIIAutumn18MiniAOD/TTJets_TuneCP5_13TeV-madgraphMLM-pythia8/MINIAODSIM/102X_upgrade2018_realistic_v15-v1/280000/96114CBE-C01A-0F46-8A5A-71CD3A3DA863.root'
p6
aS'root://cms-xrd-global.cern.ch//store/mc/RunIIAutumn18MiniAOD/TTJets_TuneCP5_13TeV-madgraphMLM-pythia8/MINIAODSIM/102X_upgrade2018_realistic_v15-v1/280000/B95E5078-92BC-054D-94A3-D61879ECF84D.root'
p7
aS'root://cms-xrd-global.cern.ch//store/mc/RunIIAutumn18MiniAOD/TTJets_TuneCP5_13TeV-madgraphMLM-pythia8/MINIAODSIM/102X_upgrade2018_realistic_v15-v1/280000/87B3F4D3-0E61-444E-AB61-530641A3D3EB.root'
p8
aS'root://cms-xrd-global.cern.ch//store/mc/RunIIAutumn18MiniAOD/TTJets_TuneCP5_13TeV-madgraphMLM-pythia8/MINIAODSIM/102X_upgrade2018_realistic_v15-v1/280000/94D7A02F-69B8-404B-8757-E77955030C57.root'
p9
aS'root://cms-xrd-global.cern.ch//store/mc/RunIIAutumn18MiniAOD/TTJets_TuneCP5_13TeV-madgraphMLM-pythia8/MINIAODSIM/102X_upgrade2018_realistic_v15-v1/280000/07D5E9A8-8547-A340-B6E8-D99FB1289D56.root'
p10
a.